; Function Attrs: mustprogress nofree norecurse nosync nounwind memory(readwrite, inaccessiblemem: none) uwtable
define hidden noundef i32 @_ZNK4ncnn4Mish15forward_inplaceERNS_3MatERKNS_6OptionE(ptr nocapture nonnull readnone align 8 %0, ptr nocapture noundef nonnull readonly align 8 dereferenceable(72) %1, ptr nocapture nonnull readnone align 8 %2) unnamed_addr #2 align 2 personality ptr @__gxx_personality_v0 {
  %4 = getelementptr inbounds nuw i8, ptr %1, i64 44
  %5 = load i32, ptr %4, align 4
  %6 = getelementptr inbounds nuw i8, ptr %1, i64 48
  %7 = load i32, ptr %6, align 8
  %8 = getelementptr inbounds nuw i8, ptr %1, i64 52
  %9 = load i32, ptr %8, align 4
  %10 = getelementptr inbounds nuw i8, ptr %1, i64 56
  %11 = load i32, ptr %10, align 8
  %12 = mul i32 %7, %5
  %13 = mul i32 %12, %9
  %14 = icmp sgt i32 %11, 0
  br i1 %14, label %.lr.ph72, label %._crit_edge73

.lr.ph72:                                         ; preds = %3
  %15 = getelementptr inbounds nuw i8, ptr %1, i64 64
  %16 = getelementptr inbounds nuw i8, ptr %1, i64 16
  %17 = icmp sgt i32 %13, 0
  br i1 %17, label %.lr.ph.us.preheader, label %._crit_edge73

.lr.ph.us.preheader:                              ; preds = %.lr.ph72
  %wide.trip.count79 = zext nneg i32 %11 to i64
  %wide.trip.count = zext nneg i32 %13 to i64
  br label %.lr.ph.us

.lr.ph.us:                                        ; preds = %.lr.ph.us.preheader, %._crit_edge.us
  %indvars.iv76 = phi i64 [ 0, %.lr.ph.us.preheader ], [ %indvars.iv.next77, %._crit_edge.us ]
  %18 = load ptr, ptr %1, align 8
  %19 = load i64, ptr %15, align 8
  %20 = mul i64 %19, %indvars.iv76
  %21 = load i64, ptr %16, align 8
  %22 = mul i64 %20, %21
  %23 = getelementptr inbounds i8, ptr %18, i64 %22
  br label %24

24:                                               ; preds = %.lr.ph.us, %34
  %indvars.iv = phi i64 [ 0, %.lr.ph.us ], [ %indvars.iv.next, %34 ]
  %25 = getelementptr inbounds float, ptr %23, i64 %indvars.iv
  %26 = load float, ptr %25, align 4
  %27 = fcmp fast ogt float %26, 2.000000e+01
  br i1 %27, label %34, label %28

28:                                               ; preds = %24
  %29 = fcmp fast olt float %26, -2.000000e+01
  %30 = tail call fast float @llvm.exp.f32(float %26)
  br i1 %29, label %34, label %31

31:                                               ; preds = %28
  %32 = fadd fast float %30, 1.000000e+00
  %33 = tail call fast float @llvm.log.f32(float %32)
  br label %34

34:                                               ; preds = %28, %31, %24
  %.0.us = phi nsz float [ %33, %31 ], [ %26, %24 ], [ %30, %28 ]
  %35 = tail call fast float @llvm.tanh.f32(float %.0.us)
  %36 = fmul fast float %35, %26
  store float %36, ptr %25, align 4
  %indvars.iv.next = add nuw nsw i64 %indvars.iv, 1
  %exitcond.not = icmp eq i64 %indvars.iv.next, %wide.trip.count
  br i1 %exitcond.not, label %._crit_edge.us, label %24, !llvm.loop !4

._crit_edge.us:                                   ; preds = %34
  %indvars.iv.next77 = add nuw nsw i64 %indvars.iv76, 1
  %exitcond80.not = icmp eq i64 %indvars.iv.next77, %wide.trip.count79
  br i1 %exitcond80.not, label %._crit_edge73, label %.lr.ph.us, !llvm.loop !6

._crit_edge73:                                    ; preds = %._crit_edge.us, %.lr.ph72, %3
  ret i32 0
}